target datalayout = "e-m:e-p270:32:32-p271:32:32-p272:64:64-i64:64-i128:128-f80:128-n8:16:32:64-S128"
target triple = "x86_64-pc-linux-gnu"

%union.ListCell = type { ptr }
%struct.List = type { i32, i32, i32, ptr, [0 x %union.ListCell] }
%struct.ForEachState = type { ptr, i32 }

; Function Attrs: nounwind uwtable
define dso_local zeroext i1 @list_member_int(ptr noundef %0, i32 noundef %1) #0 {
  %3 = alloca i1, align 1
  %4 = alloca ptr, align 8
  %5 = alloca i32, align 4
  %6 = alloca ptr, align 8
  %7 = alloca %struct.ForEachState, align 8
  %8 = alloca i32, align 4
  store ptr %0, ptr %4, align 8
  store i32 %1, ptr %5, align 4
  call void @llvm.lifetime.start.p0(i64 8, ptr %6) #7
  call void @llvm.lifetime.start.p0(i64 16, ptr %7) #7
  %9 = getelementptr inbounds nuw %struct.ForEachState, ptr %7, i32 0, i32 0
  %10 = load ptr, ptr %4, align 8
  store ptr %10, ptr %9, align 8
  %11 = getelementptr inbounds nuw %struct.ForEachState, ptr %7, i32 0, i32 1
  store i32 0, ptr %11, align 8
  %12 = getelementptr i8, ptr %7, i64 12
  call void @llvm.memset.p0.i64(ptr align 4 %12, i8 0, i64 4, i1 false)
  br label %13

13:                                               ; preds = %46, %2
  %14 = getelementptr inbounds nuw %struct.ForEachState, ptr %7, i32 0, i32 0
  %15 = load ptr, ptr %14, align 8
  %16 = icmp ne ptr %15, null
  br i1 %16, label %17, label %34

17:                                               ; preds = %13
  %18 = getelementptr inbounds nuw %struct.ForEachState, ptr %7, i32 0, i32 1
  %19 = load i32, ptr %18, align 8
  %20 = getelementptr inbounds nuw %struct.ForEachState, ptr %7, i32 0, i32 0
  %21 = load ptr, ptr %20, align 8
  %22 = getelementptr inbounds nuw %struct.List, ptr %21, i32 0, i32 1
  %23 = load i32, ptr %22, align 4
  %24 = icmp slt i32 %19, %23
  br i1 %24, label %25, label %34

25:                                               ; preds = %17
  %26 = getelementptr inbounds nuw %struct.ForEachState, ptr %7, i32 0, i32 0
  %27 = load ptr, ptr %26, align 8
  %28 = getelementptr inbounds nuw %struct.List, ptr %27, i32 0, i32 3
  %29 = load ptr, ptr %28, align 8
  %30 = getelementptr inbounds nuw %struct.ForEachState, ptr %7, i32 0, i32 1
  %31 = load i32, ptr %30, align 8
  %32 = sext i32 %31 to i64
  %33 = getelementptr inbounds %union.ListCell, ptr %29, i64 %32
  store ptr %33, ptr %6, align 8
  br label %35

34:                                               ; preds = %17, %13
  store ptr null, ptr %6, align 8
  br label %35

35:                                               ; preds = %34, %25
  %36 = phi i32 [ 1, %25 ], [ 0, %34 ]
  %37 = icmp ne i32 %36, 0
  br i1 %37, label %39, label %38

38:                                               ; preds = %35
  store i32 2, ptr %8, align 4
  br label %50

39:                                               ; preds = %35
  %40 = load ptr, ptr %6, align 8
  %41 = load i32, ptr %40, align 8
  %42 = load i32, ptr %5, align 4
  %43 = icmp eq i32 %41, %42
  br i1 %43, label %44, label %45

44:                                               ; preds = %39
  store i1 true, ptr %3, align 1
  store i32 1, ptr %8, align 4
  br label %50

45:                                               ; preds = %39
  br label %46

46:                                               ; preds = %45
  %47 = getelementptr inbounds nuw %struct.ForEachState, ptr %7, i32 0, i32 1
  %48 = load i32, ptr %47, align 8
  %49 = add i32 %48, 1
  store i32 %49, ptr %47, align 8
  br label %13, !llvm.loop !7

50:                                               ; preds = %44, %38
  call void @llvm.lifetime.end.p0(i64 16, ptr %7) #7
  %51 = load i32, ptr %8, align 4
  switch i32 %51, label %53 [
    i32 2, label %52
  ]

52:                                               ; preds = %50
  store i1 false, ptr %3, align 1
  store i32 1, ptr %8, align 4
  br label %53

53:                                               ; preds = %52, %50
  call void @llvm.lifetime.end.p0(i64 8, ptr %6) #7
  %54 = load i1, ptr %3, align 1
  ret i1 %54
}